; Function Attrs: mustprogress uwtable
define internal void @_ZN5faiss12_GLOBAL__N_121AQDistanceComputerLUTILb0ELNS_17AdditiveQuantizer13Search_type_tE1EE9set_queryEPKf(ptr nocapture noundef nonnull align 8 dereferenceable(68) %0, ptr noundef %1) unnamed_addr #2 align 2 {
  %3 = getelementptr inbounds i8, ptr %0, i64 48
  %4 = load ptr, ptr %3, align 8
  %5 = getelementptr inbounds i8, ptr %0, i64 24
  %6 = load ptr, ptr %5, align 8
  %7 = load ptr, ptr %4, align 8
  %8 = getelementptr inbounds i8, ptr %7, i64 56
  %9 = load ptr, ptr %8, align 8
  tail call void %9(ptr noundef nonnull align 8 dereferenceable(308) %4, i64 noundef 1, ptr noundef %1, ptr noundef %6, float noundef 1.000000e+00, i64 noundef -1)
  %10 = getelementptr inbounds i8, ptr %0, i64 56
  %11 = load i64, ptr %10, align 8
  %12 = tail call noundef float @_ZN5faiss15fvec_norm_L2sqrEPKfm(ptr noundef %1, i64 noundef %11)
  %13 = getelementptr inbounds i8, ptr %0, i64 64
  store float %12, ptr %13, align 8
  ret void
}